target datalayout = "e-m:e-p270:32:32-p271:32:32-p272:64:64-i64:64-i128:128-f80:128-n8:16:32:64-S128"
target triple = "x86_64-pc-linux-gnu"

%struct.QMetaObject = type { %struct.anon }
%struct.anon = type { %"struct.QMetaObject::SuperData", ptr, ptr, ptr, ptr, ptr }
%"struct.QMetaObject::SuperData" = type { ptr }
%class.QString = type { ptr }

@.str.10 = private unnamed_addr constant [4 x i8] c"U3D\00", align 1
@.str.17 = private unnamed_addr constant [5 x i8] c"IDTF\00", align 1
@_ZN11U3DIOPlugin16staticMetaObjectE = external global %struct.QMetaObject, align 8

; Function Attrs: mustprogress nounwind uwtable
define linkonce_odr noundef i32 @_ZN3vcg3tri2io12ExporterIDTFI6CMeshOE23GetExportMaskCapabilityEv() #4 comdat align 2 {
  %1 = alloca i32, align 4
  store i32 0, ptr %1, align 4
  %2 = load i32, ptr %1, align 4
  %3 = or i32 %2, 16
  store i32 %3, ptr %1, align 4
  %4 = load i32, ptr %1, align 4
  %5 = or i32 %4, 4
  store i32 %5, ptr %1, align 4
  %6 = load i32, ptr %1, align 4
  %7 = or i32 %6, 256
  store i32 %7, ptr %1, align 4
  %8 = load i32, ptr %1, align 4
  %9 = or i32 %8, 4096
  store i32 %9, ptr %1, align 4
  %10 = load i32, ptr %1, align 4
  %11 = or i32 %10, 16384
  store i32 %11, ptr %1, align 4
  %12 = load i32, ptr %1, align 4
  ret i32 %12
}

; Function Attrs: mustprogress nounwind uwtable
define linkonce_odr noundef i32 @_ZN3vcg3tri2io11ExporterU3DI6CMeshOE23GetExportMaskCapabilityEv() #4 comdat align 2 {
  %1 = alloca i32, align 4
  store i32 0, ptr %1, align 4
  %2 = load i32, ptr %1, align 4
  %3 = or i32 %2, 4
  store i32 %3, ptr %1, align 4
  %4 = load i32, ptr %1, align 4
  %5 = or i32 %4, 256
  store i32 %5, ptr %1, align 4
  %6 = load i32, ptr %1, align 4
  %7 = or i32 %6, 4096
  store i32 %7, ptr %1, align 4
  %8 = load i32, ptr %1, align 4
  ret i32 %8
}

; Function Attrs: mustprogress uwtable
define linkonce_odr void @_ZN11U3DIOPlugin2trEPKcS1_i(ptr dead_on_unwind noalias writable sret(%class.QString) align 8 %0, ptr noundef %1, ptr noundef %2, i32 noundef %3) #5 comdat align 2 {
  %5 = alloca ptr, align 8
  %6 = alloca ptr, align 8
  %7 = alloca ptr, align 8
  %8 = alloca i32, align 4
  store ptr %0, ptr %5, align 8
  store ptr %1, ptr %6, align 8
  store ptr %2, ptr %7, align 8
  store i32 %3, ptr %8, align 4
  %9 = load ptr, ptr %6, align 8
  %10 = load ptr, ptr %7, align 8
  %11 = load i32, ptr %8, align 4
  call void @_ZNK11QMetaObject2trEPKcS1_i(ptr dead_on_unwind writable sret(%class.QString) align 8 %0, ptr noundef nonnull align 8 dereferenceable(48) @_ZN11U3DIOPlugin16staticMetaObjectE, ptr noundef %9, ptr noundef %10, i32 noundef %11)
  ret void
}

; Function Attrs: mustprogress uwtable
define linkonce_odr void @_ZNKR7QString7toUpperEv(ptr dead_on_unwind noalias writable sret(%class.QString) align 8 %0, ptr noundef nonnull align 8 dereferenceable(8) %1) #5 comdat align 2 {
  %3 = alloca ptr, align 8
  %4 = alloca ptr, align 8
  store ptr %0, ptr %3, align 8
  store ptr %1, ptr %4, align 8
  %5 = load ptr, ptr %4, align 8
  call void @_ZN7QString14toUpper_helperERKS_(ptr dead_on_unwind writable sret(%class.QString) align 8 %0, ptr noundef nonnull align 8 dereferenceable(8) %5)
  ret void
}

; Function Attrs: mustprogress uwtable
define void @_ZNK11U3DIOPlugin20exportMaskCapabilityERK7QStringRiS3_(ptr noundef nonnull align 8 dereferenceable(32) %0, ptr noundef nonnull align 8 dereferenceable(8) %1, ptr noundef nonnull align 4 dereferenceable(4) %2, ptr noundef nonnull align 4 dereferenceable(4) %3) unnamed_addr #5 align 2 personality ptr @__gxx_personality_v0 {
  %5 = alloca ptr, align 8
  %6 = alloca ptr, align 8
  %7 = alloca ptr, align 8
  %8 = alloca ptr, align 8
  %9 = alloca %class.QString, align 8
  %10 = alloca %class.QString, align 8
  %11 = alloca ptr, align 8
  %12 = alloca i32, align 4
  %13 = alloca %class.QString, align 8
  %14 = alloca %class.QString, align 8
  store ptr %0, ptr %5, align 8
  store ptr %1, ptr %6, align 8
  store ptr %2, ptr %7, align 8
  store ptr %3, ptr %8, align 8
  %15 = load ptr, ptr %6, align 8
  call void @_ZNKR7QString7toUpperEv(ptr dead_on_unwind writable sret(%class.QString) align 8 %9, ptr noundef nonnull align 8 dereferenceable(8) %15)
  invoke void @_ZN11U3DIOPlugin2trEPKcS1_i(ptr dead_on_unwind writable sret(%class.QString) align 8 %10, ptr noundef @.str.10, ptr noundef null, i32 noundef -1)
          to label %16 unwind label %31

16:                                               ; preds = %4
  %17 = call noundef zeroext i1 @_ZeqRK7QStringS1_(ptr noundef nonnull align 8 dereferenceable(8) %9, ptr noundef nonnull align 8 dereferenceable(8) %10) #3
  call void @_ZN7QStringD2Ev(ptr noundef nonnull align 8 dereferenceable(8) %10) #3
  call void @_ZN7QStringD2Ev(ptr noundef nonnull align 8 dereferenceable(8) %9) #3
  br i1 %17, label %18, label %35

18:                                               ; preds = %16
  %19 = call noundef i32 @_ZN3vcg3tri2io11ExporterU3DI6CMeshOE23GetExportMaskCapabilityEv()
  %20 = load ptr, ptr %8, align 8
  store i32 %19, ptr %20, align 4
  %21 = load ptr, ptr %7, align 8
  store i32 %19, ptr %21, align 4
  %22 = load ptr, ptr %8, align 8
  %23 = load i32, ptr %22, align 4
  %24 = and i32 %23, -17
  store i32 %24, ptr %22, align 4
  %25 = load ptr, ptr %8, align 8
  %26 = load i32, ptr %25, align 4
  %27 = and i32 %26, -5
  store i32 %27, ptr %25, align 4
  %28 = load ptr, ptr %8, align 8
  %29 = load i32, ptr %28, align 4
  %30 = and i32 %29, -257
  store i32 %30, ptr %28, align 4
  br label %56

31:                                               ; preds = %4
  %32 = landingpad { ptr, i32 }
          cleanup
  %33 = extractvalue { ptr, i32 } %32, 0
  store ptr %33, ptr %11, align 8
  %34 = extractvalue { ptr, i32 } %32, 1
  store i32 %34, ptr %12, align 4
  call void @_ZN7QStringD2Ev(ptr noundef nonnull align 8 dereferenceable(8) %9) #3
  br label %57

35:                                               ; preds = %16
  %36 = load ptr, ptr %6, align 8
  call void @_ZNKR7QString7toUpperEv(ptr dead_on_unwind writable sret(%class.QString) align 8 %13, ptr noundef nonnull align 8 dereferenceable(8) %36)
  invoke void @_ZN11U3DIOPlugin2trEPKcS1_i(ptr dead_on_unwind writable sret(%class.QString) align 8 %14, ptr noundef @.str.17, ptr noundef null, i32 noundef -1)
          to label %37 unwind label %52

37:                                               ; preds = %35
  %38 = call noundef zeroext i1 @_ZeqRK7QStringS1_(ptr noundef nonnull align 8 dereferenceable(8) %13, ptr noundef nonnull align 8 dereferenceable(8) %14) #3
  call void @_ZN7QStringD2Ev(ptr noundef nonnull align 8 dereferenceable(8) %14) #3
  call void @_ZN7QStringD2Ev(ptr noundef nonnull align 8 dereferenceable(8) %13) #3
  br i1 %38, label %39, label %56

39:                                               ; preds = %37
  %40 = call noundef i32 @_ZN3vcg3tri2io12ExporterIDTFI6CMeshOE23GetExportMaskCapabilityEv()
  %41 = load ptr, ptr %8, align 8
  store i32 %40, ptr %41, align 4
  %42 = load ptr, ptr %7, align 8
  store i32 %40, ptr %42, align 4
  %43 = load ptr, ptr %8, align 8
  %44 = load i32, ptr %43, align 4
  %45 = and i32 %44, -17
  store i32 %45, ptr %43, align 4
  %46 = load ptr, ptr %8, align 8
  %47 = load i32, ptr %46, align 4
  %48 = and i32 %47, -5
  store i32 %48, ptr %46, align 4
  %49 = load ptr, ptr %8, align 8
  %50 = load i32, ptr %49, align 4
  %51 = and i32 %50, -257
  store i32 %51, ptr %49, align 4
  br label %56

52:                                               ; preds = %35
  %53 = landingpad { ptr, i32 }
          cleanup
  %54 = extractvalue { ptr, i32 } %53, 0
  store ptr %54, ptr %11, align 8
  %55 = extractvalue { ptr, i32 } %53, 1
  store i32 %55, ptr %12, align 4
  call void @_ZN7QStringD2Ev(ptr noundef nonnull align 8 dereferenceable(8) %13) #3
  br label %57

56:                                               ; preds = %39, %37, %18
  ret void

57:                                               ; preds = %52, %31
  %58 = load ptr, ptr %11, align 8
  %59 = load i32, ptr %12, align 4
  %60 = insertvalue { ptr, i32 } poison, ptr %58, 0
  %61 = insertvalue { ptr, i32 } %60, i32 %59, 1
  resume { ptr, i32 } %61
}