; Function Attrs: mustprogress uwtable
define void @_ZNK11U3DIOPlugin20exportMaskCapabilityERK7QStringRiS3_(ptr nocapture nonnull readnone align 8 %0, ptr noundef nonnull align 8 dereferenceable(8) %1, ptr nocapture noundef nonnull writeonly align 4 dereferenceable(4) %2, ptr nocapture noundef nonnull align 4 dereferenceable(4) %3) unnamed_addr #9 align 2 personality ptr @__gxx_personality_v0 {
  %5 = alloca %class.QString, align 8
  %6 = alloca %class.QString, align 8
  %7 = alloca %class.QString, align 8
  %8 = alloca %class.QString, align 8
  call void @_ZN7QString14toUpper_helperERKS_(ptr dead_on_unwind nonnull writable sret(%class.QString) align 8 %5, ptr noundef nonnull align 8 dereferenceable(8) %1)
  invoke void @_ZNK11QMetaObject2trEPKcS1_i(ptr dead_on_unwind nonnull writable sret(%class.QString) align 8 %6, ptr noundef nonnull align 8 dereferenceable(48) @_ZN11U3DIOPlugin16staticMetaObjectE, ptr noundef nonnull @.str.10, ptr noundef null, i32 noundef -1)
          to label %_ZN11U3DIOPlugin2trEPKcS1_i.exit unwind label %18

_ZN11U3DIOPlugin2trEPKcS1_i.exit:                 ; preds = %4
  %9 = call noundef zeroext i1 @_ZeqRK7QStringS1_(ptr noundef nonnull align 8 dereferenceable(8) %5, ptr noundef nonnull align 8 dereferenceable(8) %6) #23
  %10 = load ptr, ptr %6, align 8
  %11 = load atomic i32, ptr %10 monotonic, align 4
  switch i32 %11, label %_ZN9QtPrivate8RefCount5derefEv.exit.i [
    i32 0, label %_ZN9QtPrivate8RefCount5derefEv.exit.thread2.i
    i32 -1, label %_ZN7QStringD2Ev.exit
  ]

_ZN9QtPrivate8RefCount5derefEv.exit.i:            ; preds = %_ZN11U3DIOPlugin2trEPKcS1_i.exit
  %12 = atomicrmw sub ptr %10, i32 1 seq_cst, align 4
  %.not.i = icmp eq i32 %12, 1
  br i1 %.not.i, label %_ZN9QtPrivate8RefCount5derefEv.exit._ZN9QtPrivate8RefCount5derefEv.exit.thread2_crit_edge.i, label %_ZN7QStringD2Ev.exit

_ZN9QtPrivate8RefCount5derefEv.exit._ZN9QtPrivate8RefCount5derefEv.exit.thread2_crit_edge.i: ; preds = %_ZN9QtPrivate8RefCount5derefEv.exit.i
  %.pre.i = load ptr, ptr %6, align 8
  br label %_ZN9QtPrivate8RefCount5derefEv.exit.thread2.i

_ZN9QtPrivate8RefCount5derefEv.exit.thread2.i:    ; preds = %_ZN9QtPrivate8RefCount5derefEv.exit._ZN9QtPrivate8RefCount5derefEv.exit.thread2_crit_edge.i, %_ZN11U3DIOPlugin2trEPKcS1_i.exit
  %13 = phi ptr [ %.pre.i, %_ZN9QtPrivate8RefCount5derefEv.exit._ZN9QtPrivate8RefCount5derefEv.exit.thread2_crit_edge.i ], [ %10, %_ZN11U3DIOPlugin2trEPKcS1_i.exit ]
  call void @_ZN10QArrayData10deallocateEPS_mm(ptr noundef %13, i64 noundef 2, i64 noundef 8) #23
  br label %_ZN7QStringD2Ev.exit

_ZN7QStringD2Ev.exit:                             ; preds = %_ZN11U3DIOPlugin2trEPKcS1_i.exit, %_ZN9QtPrivate8RefCount5derefEv.exit.i, %_ZN9QtPrivate8RefCount5derefEv.exit.thread2.i
  %14 = load ptr, ptr %5, align 8
  %15 = load atomic i32, ptr %14 monotonic, align 4
  switch i32 %15, label %_ZN9QtPrivate8RefCount5derefEv.exit.i16 [
    i32 0, label %_ZN9QtPrivate8RefCount5derefEv.exit.thread2.i15
    i32 -1, label %_ZN7QStringD2Ev.exit20
  ]

_ZN9QtPrivate8RefCount5derefEv.exit.i16:          ; preds = %_ZN7QStringD2Ev.exit
  %16 = atomicrmw sub ptr %14, i32 1 seq_cst, align 4
  %.not.i17 = icmp eq i32 %16, 1
  br i1 %.not.i17, label %_ZN9QtPrivate8RefCount5derefEv.exit._ZN9QtPrivate8RefCount5derefEv.exit.thread2_crit_edge.i18, label %_ZN7QStringD2Ev.exit20

_ZN9QtPrivate8RefCount5derefEv.exit._ZN9QtPrivate8RefCount5derefEv.exit.thread2_crit_edge.i18: ; preds = %_ZN9QtPrivate8RefCount5derefEv.exit.i16
  %.pre.i19 = load ptr, ptr %5, align 8
  br label %_ZN9QtPrivate8RefCount5derefEv.exit.thread2.i15

_ZN9QtPrivate8RefCount5derefEv.exit.thread2.i15:  ; preds = %_ZN9QtPrivate8RefCount5derefEv.exit._ZN9QtPrivate8RefCount5derefEv.exit.thread2_crit_edge.i18, %_ZN7QStringD2Ev.exit
  %17 = phi ptr [ %.pre.i19, %_ZN9QtPrivate8RefCount5derefEv.exit._ZN9QtPrivate8RefCount5derefEv.exit.thread2_crit_edge.i18 ], [ %14, %_ZN7QStringD2Ev.exit ]
  call void @_ZN10QArrayData10deallocateEPS_mm(ptr noundef %17, i64 noundef 2, i64 noundef 8) #23
  br label %_ZN7QStringD2Ev.exit20

_ZN7QStringD2Ev.exit20:                           ; preds = %_ZN7QStringD2Ev.exit, %_ZN9QtPrivate8RefCount5derefEv.exit.i16, %_ZN9QtPrivate8RefCount5derefEv.exit.thread2.i15
  br i1 %9, label %.sink.split, label %20

18:                                               ; preds = %4
  %19 = landingpad { ptr, i32 }
          cleanup
  br label %35

20:                                               ; preds = %_ZN7QStringD2Ev.exit20
  call void @_ZN7QString14toUpper_helperERKS_(ptr dead_on_unwind nonnull writable sret(%class.QString) align 8 %7, ptr noundef nonnull align 8 dereferenceable(8) %1)
  invoke void @_ZNK11QMetaObject2trEPKcS1_i(ptr dead_on_unwind nonnull writable sret(%class.QString) align 8 %8, ptr noundef nonnull align 8 dereferenceable(48) @_ZN11U3DIOPlugin16staticMetaObjectE, ptr noundef nonnull @.str.17, ptr noundef null, i32 noundef -1)
          to label %_ZN11U3DIOPlugin2trEPKcS1_i.exit21 unwind label %30

_ZN11U3DIOPlugin2trEPKcS1_i.exit21:               ; preds = %20
  %21 = call noundef zeroext i1 @_ZeqRK7QStringS1_(ptr noundef nonnull align 8 dereferenceable(8) %7, ptr noundef nonnull align 8 dereferenceable(8) %8) #23
  %22 = load ptr, ptr %8, align 8
  %23 = load atomic i32, ptr %22 monotonic, align 4
  switch i32 %23, label %_ZN9QtPrivate8RefCount5derefEv.exit.i23 [
    i32 0, label %_ZN9QtPrivate8RefCount5derefEv.exit.thread2.i22
    i32 -1, label %_ZN7QStringD2Ev.exit27
  ]

_ZN9QtPrivate8RefCount5derefEv.exit.i23:          ; preds = %_ZN11U3DIOPlugin2trEPKcS1_i.exit21
  %24 = atomicrmw sub ptr %22, i32 1 seq_cst, align 4
  %.not.i24 = icmp eq i32 %24, 1
  br i1 %.not.i24, label %_ZN9QtPrivate8RefCount5derefEv.exit._ZN9QtPrivate8RefCount5derefEv.exit.thread2_crit_edge.i25, label %_ZN7QStringD2Ev.exit27

_ZN9QtPrivate8RefCount5derefEv.exit._ZN9QtPrivate8RefCount5derefEv.exit.thread2_crit_edge.i25: ; preds = %_ZN9QtPrivate8RefCount5derefEv.exit.i23
  %.pre.i26 = load ptr, ptr %8, align 8
  br label %_ZN9QtPrivate8RefCount5derefEv.exit.thread2.i22

_ZN9QtPrivate8RefCount5derefEv.exit.thread2.i22:  ; preds = %_ZN9QtPrivate8RefCount5derefEv.exit._ZN9QtPrivate8RefCount5derefEv.exit.thread2_crit_edge.i25, %_ZN11U3DIOPlugin2trEPKcS1_i.exit21
  %25 = phi ptr [ %.pre.i26, %_ZN9QtPrivate8RefCount5derefEv.exit._ZN9QtPrivate8RefCount5derefEv.exit.thread2_crit_edge.i25 ], [ %22, %_ZN11U3DIOPlugin2trEPKcS1_i.exit21 ]
  call void @_ZN10QArrayData10deallocateEPS_mm(ptr noundef %25, i64 noundef 2, i64 noundef 8) #23
  br label %_ZN7QStringD2Ev.exit27

_ZN7QStringD2Ev.exit27:                           ; preds = %_ZN11U3DIOPlugin2trEPKcS1_i.exit21, %_ZN9QtPrivate8RefCount5derefEv.exit.i23, %_ZN9QtPrivate8RefCount5derefEv.exit.thread2.i22
  %26 = load ptr, ptr %7, align 8
  %27 = load atomic i32, ptr %26 monotonic, align 4
  switch i32 %27, label %_ZN9QtPrivate8RefCount5derefEv.exit.i29 [
    i32 0, label %_ZN9QtPrivate8RefCount5derefEv.exit.thread2.i28
    i32 -1, label %_ZN7QStringD2Ev.exit33
  ]

_ZN9QtPrivate8RefCount5derefEv.exit.i29:          ; preds = %_ZN7QStringD2Ev.exit27
  %28 = atomicrmw sub ptr %26, i32 1 seq_cst, align 4
  %.not.i30 = icmp eq i32 %28, 1
  br i1 %.not.i30, label %_ZN9QtPrivate8RefCount5derefEv.exit._ZN9QtPrivate8RefCount5derefEv.exit.thread2_crit_edge.i31, label %_ZN7QStringD2Ev.exit33

_ZN9QtPrivate8RefCount5derefEv.exit._ZN9QtPrivate8RefCount5derefEv.exit.thread2_crit_edge.i31: ; preds = %_ZN9QtPrivate8RefCount5derefEv.exit.i29
  %.pre.i32 = load ptr, ptr %7, align 8
  br label %_ZN9QtPrivate8RefCount5derefEv.exit.thread2.i28

_ZN9QtPrivate8RefCount5derefEv.exit.thread2.i28:  ; preds = %_ZN9QtPrivate8RefCount5derefEv.exit._ZN9QtPrivate8RefCount5derefEv.exit.thread2_crit_edge.i31, %_ZN7QStringD2Ev.exit27
  %29 = phi ptr [ %.pre.i32, %_ZN9QtPrivate8RefCount5derefEv.exit._ZN9QtPrivate8RefCount5derefEv.exit.thread2_crit_edge.i31 ], [ %26, %_ZN7QStringD2Ev.exit27 ]
  call void @_ZN10QArrayData10deallocateEPS_mm(ptr noundef %29, i64 noundef 2, i64 noundef 8) #23
  br label %_ZN7QStringD2Ev.exit33

_ZN7QStringD2Ev.exit33:                           ; preds = %_ZN7QStringD2Ev.exit27, %_ZN9QtPrivate8RefCount5derefEv.exit.i29, %_ZN9QtPrivate8RefCount5derefEv.exit.thread2.i28
  br i1 %21, label %.sink.split, label %34

30:                                               ; preds = %20
  %31 = landingpad { ptr, i32 }
          cleanup
  br label %35

.sink.split:                                      ; preds = %_ZN7QStringD2Ev.exit33, %_ZN7QStringD2Ev.exit20
  %.sink35 = phi i32 [ 4356, %_ZN7QStringD2Ev.exit20 ], [ 20756, %_ZN7QStringD2Ev.exit33 ]
  store i32 %.sink35, ptr %3, align 4
  store i32 %.sink35, ptr %2, align 4
  %32 = load i32, ptr %3, align 4
  %33 = and i32 %32, -277
  store i32 %33, ptr %3, align 4
  br label %34

34:                                               ; preds = %.sink.split, %_ZN7QStringD2Ev.exit33
  ret void

35:                                               ; preds = %30, %18
  %.sink36 = phi ptr [ %7, %30 ], [ %5, %18 ]
  %.pn = phi { ptr, i32 } [ %31, %30 ], [ %19, %18 ]
  call void @_ZN7QStringD2Ev(ptr noundef nonnull align 8 dereferenceable(8) %.sink36) #23
  resume { ptr, i32 } %.pn
}